target datalayout = "e-m:e-p270:32:32-p271:32:32-p272:64:64-i64:64-i128:128-f80:128-n8:16:32:64-S128"
target triple = "x86_64-pc-linux-gnu"

%struct.slurm_conf_t = type { i64, ptr, i16, ptr, ptr, ptr, ptr, ptr, i16, ptr, ptr, ptr, ptr, ptr, ptr, ptr, i16, ptr, ptr, ptr, ptr, i16, ptr, ptr, ptr, i64, ptr, ptr, ptr, ptr, i16, ptr, ptr, i16, i32, ptr, i32, ptr, i32, i32, ptr, ptr, i64, i64, ptr, i16, i16, ptr, i32, i32, ptr, i32, ptr, i32, i16, i16, i16, ptr, i16, i16, ptr, ptr, i32, i16, i16, ptr, i32, i16, ptr, ptr, ptr, ptr, i16, ptr, ptr, ptr, ptr, i32, ptr, ptr, ptr, ptr, i16, i16, ptr, i32, i32, i32, i16, i16, ptr, ptr, i16, ptr, ptr, i32, i32, i32, i32, i32, i64, i32, i32, i16, ptr, ptr, i32, ptr, ptr, ptr, i16, i32, ptr, ptr, i16, ptr, ptr, i32, i16, ptr, ptr, ptr, ptr, i32, i32, i16, i16, i32, ptr, i16, ptr, i32, i32, i32, i32, i32, i32, ptr, i16, ptr, ptr, i32, i16, ptr, i32, i16, i16, ptr, ptr, ptr, i16, ptr, ptr, ptr, ptr, i16, i16, ptr, i16, ptr, i16, ptr, i16, ptr, i16, ptr, ptr, ptr, ptr, i16, ptr, ptr, ptr, i32, ptr, i32, ptr, ptr, i16, ptr, ptr, i32, i16, ptr, ptr, i16, i16, ptr, i16, ptr, ptr, ptr, i32, ptr, i16, i16, ptr, ptr, ptr, ptr, ptr, ptr, ptr, ptr, i16, i32, i16, ptr, ptr, ptr, ptr, i32, ptr, ptr, ptr, i16, ptr, ptr, ptr, i16, ptr, i16, ptr, i16, i16, ptr }

@all_flag = dso_local global i32 0, align 4
@exit_code = dso_local global i32 0, align 4
@quiet_flag = dso_local global i32 0, align 4
@old_slurm_ctl_conf_ptr = dso_local global ptr null, align 8
@.str.208 = private unnamed_addr constant [39 x i8] c"slurm_load_ctl_conf no change in data\0A\00", align 1
@.str.209 = private unnamed_addr constant [26 x i8] c"slurm_load_ctl_conf error\00", align 1
@.str.213 = private unnamed_addr constant [15 x i8] c"SLURM_CONF_OUT\00", align 1
@.str.214 = private unnamed_addr constant [22 x i8] c"slurm_load_node error\00", align 1
@.str.215 = private unnamed_addr constant [28 x i8] c"slurm_load_partitions error\00", align 1

; Function Attrs: nounwind uwtable
define internal void @_write_config(ptr noundef %0) #0 {
  %2 = alloca ptr, align 8
  %3 = alloca i32, align 4
  %4 = alloca ptr, align 8
  %5 = alloca ptr, align 8
  %6 = alloca ptr, align 8
  %7 = alloca i32, align 4
  %8 = alloca i32, align 4
  store ptr %0, ptr %2, align 8
  call void @llvm.lifetime.start.p0(i64 4, ptr %3) #12
  call void @llvm.lifetime.start.p0(i64 8, ptr %4) #12
  store ptr null, ptr %4, align 8
  call void @llvm.lifetime.start.p0(i64 8, ptr %5) #12
  store ptr null, ptr %5, align 8
  call void @llvm.lifetime.start.p0(i64 8, ptr %6) #12
  store ptr null, ptr %6, align 8
  %9 = load ptr, ptr @old_slurm_ctl_conf_ptr, align 8
  %10 = icmp ne ptr %9, null
  br i1 %10, label %11, label %33

11:                                               ; preds = %1
  %12 = load ptr, ptr @old_slurm_ctl_conf_ptr, align 8
  %13 = getelementptr inbounds nuw %struct.slurm_conf_t, ptr %12, i32 0, i32 0
  %14 = load i64, ptr %13, align 8
  %15 = call i32 @slurm_load_ctl_conf(i64 noundef %14, ptr noundef %6)
  store i32 %15, ptr %3, align 4
  %16 = load i32, ptr %3, align 4
  %17 = icmp eq i32 %16, 0
  br i1 %17, label %18, label %20

18:                                               ; preds = %11
  %19 = load ptr, ptr @old_slurm_ctl_conf_ptr, align 8
  call void @slurm_free_ctl_conf(ptr noundef %19)
  br label %32

20:                                               ; preds = %11
  %21 = call ptr @__errno_location() #16
  %22 = load i32, ptr %21, align 4
  %23 = icmp eq i32 %22, 1900
  br i1 %23, label %24, label %31

24:                                               ; preds = %20
  %25 = load ptr, ptr @old_slurm_ctl_conf_ptr, align 8
  store ptr %25, ptr %6, align 8
  store i32 0, ptr %3, align 4
  %26 = load i32, ptr @quiet_flag, align 4
  %27 = icmp eq i32 %26, -1
  br i1 %27, label %28, label %30

28:                                               ; preds = %24
  %29 = call i32 (ptr, ...) @printf(ptr noundef @.str.208)
  br label %30

30:                                               ; preds = %28, %24
  br label %31

31:                                               ; preds = %30, %20
  br label %32

32:                                               ; preds = %31, %18
  br label %35

33:                                               ; preds = %1
  %34 = call i32 @slurm_load_ctl_conf(i64 noundef 0, ptr noundef %6)
  store i32 %34, ptr %3, align 4
  br label %35

35:                                               ; preds = %33, %32
  %36 = load i32, ptr %3, align 4
  %37 = icmp ne i32 %36, 0
  br i1 %37, label %38, label %43

38:                                               ; preds = %35
  store i32 1, ptr @exit_code, align 4
  %39 = load i32, ptr @quiet_flag, align 4
  %40 = icmp ne i32 %39, 1
  br i1 %40, label %41, label %42

41:                                               ; preds = %38
  call void @slurm_perror(ptr noundef @.str.209)
  br label %42

42:                                               ; preds = %41, %38
  br label %45

43:                                               ; preds = %35
  %44 = load ptr, ptr %6, align 8
  store ptr %44, ptr @old_slurm_ctl_conf_ptr, align 8
  br label %45

45:                                               ; preds = %43, %42
  %46 = load i32, ptr %3, align 4
  %47 = icmp eq i32 %46, 0
  br i1 %47, label %48, label %82

48:                                               ; preds = %45
  call void @llvm.lifetime.start.p0(i64 4, ptr %7) #12
  %49 = load i32, ptr @all_flag, align 4
  store i32 %49, ptr %7, align 4
  store i32 1, ptr @all_flag, align 4
  %50 = load ptr, ptr %2, align 8
  %51 = icmp ne ptr %50, null
  br i1 %51, label %52, label %55

52:                                               ; preds = %48
  %53 = load ptr, ptr %2, align 8
  %54 = call i32 @setenv(ptr noundef @.str.213, ptr noundef %53, i32 noundef 1) #12
  br label %55

55:                                               ; preds = %52, %48
  %56 = call i32 @scontrol_load_nodes(ptr noundef %4, i16 noundef zeroext 1)
  store i32 %56, ptr %3, align 4
  %57 = load i32, ptr %3, align 4
  %58 = icmp ne i32 %57, 0
  br i1 %58, label %59, label %65

59:                                               ; preds = %55
  store i32 1, ptr @exit_code, align 4
  %60 = load i32, ptr @quiet_flag, align 4
  %61 = icmp ne i32 %60, 1
  br i1 %61, label %62, label %63

62:                                               ; preds = %59
  call void @slurm_perror(ptr noundef @.str.214)
  br label %63

63:                                               ; preds = %62, %59
  %64 = load i32, ptr %7, align 4
  store i32 %64, ptr @all_flag, align 4
  store i32 1, ptr %8, align 4
  br label %79

65:                                               ; preds = %55
  %66 = call i32 @scontrol_load_partitions(ptr noundef %5)
  store i32 %66, ptr %3, align 4
  %67 = load i32, ptr %7, align 4
  store i32 %67, ptr @all_flag, align 4
  %68 = load i32, ptr %3, align 4
  %69 = icmp ne i32 %68, 0
  br i1 %69, label %70, label %75

70:                                               ; preds = %65
  store i32 1, ptr @exit_code, align 4
  %71 = load i32, ptr @quiet_flag, align 4
  %72 = icmp ne i32 %71, 1
  br i1 %72, label %73, label %74

73:                                               ; preds = %70
  call void @slurm_perror(ptr noundef @.str.215)
  br label %74

74:                                               ; preds = %73, %70
  store i32 1, ptr %8, align 4
  br label %79

75:                                               ; preds = %65
  %76 = load ptr, ptr %6, align 8
  %77 = load ptr, ptr %4, align 8
  %78 = load ptr, ptr %5, align 8
  call void @slurm_write_ctl_conf(ptr noundef %76, ptr noundef %77, ptr noundef %78)
  store i32 0, ptr %8, align 4
  br label %79

79:                                               ; preds = %75, %74, %63
  call void @llvm.lifetime.end.p0(i64 4, ptr %7) #12
  %80 = load i32, ptr %8, align 4
  switch i32 %80, label %83 [
    i32 0, label %81
  ]

81:                                               ; preds = %79
  br label %82

82:                                               ; preds = %81, %45
  store i32 0, ptr %8, align 4
  br label %83

83:                                               ; preds = %82, %79
  call void @llvm.lifetime.end.p0(i64 8, ptr %6) #12
  call void @llvm.lifetime.end.p0(i64 8, ptr %5) #12
  call void @llvm.lifetime.end.p0(i64 8, ptr %4) #12
  call void @llvm.lifetime.end.p0(i64 4, ptr %3) #12
  %84 = load i32, ptr %8, align 4
  switch i32 %84, label %86 [
    i32 0, label %85
    i32 1, label %85
  ]

85:                                               ; preds = %83, %83
  ret void

86:                                               ; preds = %83
  unreachable
}