; Function Attrs: nounwind uwtable
define internal fastcc void @_write_config(ptr noundef %0) unnamed_addr #8 {
  %2 = alloca ptr, align 8
  %3 = alloca ptr, align 8
  %4 = alloca ptr, align 8
  call void @llvm.lifetime.start.p0(i64 8, ptr nonnull %2) #18
  store ptr null, ptr %2, align 8
  call void @llvm.lifetime.start.p0(i64 8, ptr nonnull %3) #18
  store ptr null, ptr %3, align 8
  call void @llvm.lifetime.start.p0(i64 8, ptr nonnull %4) #18
  store ptr null, ptr %4, align 8
  %5 = load ptr, ptr @old_slurm_ctl_conf_ptr, align 8
  %.not = icmp eq ptr %5, null
  br i1 %.not, label %21, label %6

6:                                                ; preds = %1
  %7 = load i64, ptr %5, align 8
  %8 = call i32 @slurm_load_ctl_conf(i64 noundef %7, ptr noundef nonnull %4) #18
  %9 = icmp eq i32 %8, 0
  br i1 %9, label %10, label %12

10:                                               ; preds = %6
  %11 = load ptr, ptr @old_slurm_ctl_conf_ptr, align 8
  call void @slurm_free_ctl_conf(ptr noundef %11) #18
  br label %.thread

12:                                               ; preds = %6
  %13 = tail call ptr @__errno_location() #24
  %14 = load i32, ptr %13, align 4
  %15 = icmp eq i32 %14, 1900
  br i1 %15, label %16, label %.thread23

16:                                               ; preds = %12
  %17 = load ptr, ptr @old_slurm_ctl_conf_ptr, align 8
  store ptr %17, ptr %4, align 8
  %18 = load i32, ptr @quiet_flag, align 4
  %19 = icmp eq i32 %18, -1
  br i1 %19, label %20, label %.thread

20:                                               ; preds = %16
  %puts = call i32 @puts(ptr nonnull dereferenceable(1) @str.1)
  br label %.thread

21:                                               ; preds = %1
  %22 = call i32 @slurm_load_ctl_conf(i64 noundef 0, ptr noundef nonnull %4) #18
  %23 = icmp eq i32 %22, 0
  br i1 %23, label %.thread, label %.thread23

.thread23:                                        ; preds = %12, %21
  store i32 1, ptr @exit_code, align 4
  %24 = load i32, ptr @quiet_flag, align 4
  %.not14 = icmp eq i32 %24, 1
  br i1 %.not14, label %.critedge, label %25

25:                                               ; preds = %.thread23
  call void @slurm_perror(ptr noundef nonnull @.str.209) #18
  br label %.critedge

.thread:                                          ; preds = %16, %20, %10, %21
  %26 = load ptr, ptr %4, align 8
  store ptr %26, ptr @old_slurm_ctl_conf_ptr, align 8
  %27 = load i32, ptr @all_flag, align 4
  store i32 1, ptr @all_flag, align 4
  %.not15 = icmp eq ptr %0, null
  br i1 %.not15, label %30, label %28

28:                                               ; preds = %.thread
  %29 = call i32 @setenv(ptr noundef nonnull @.str.213, ptr noundef nonnull %0, i32 noundef 1) #18
  br label %30

30:                                               ; preds = %28, %.thread
  %31 = call i32 @scontrol_load_nodes(ptr noundef nonnull %2, i16 noundef zeroext 1) #18
  %.not16 = icmp eq i32 %31, 0
  br i1 %.not16, label %36, label %32

32:                                               ; preds = %30
  store i32 1, ptr @exit_code, align 4
  %33 = load i32, ptr @quiet_flag, align 4
  %.not19 = icmp eq i32 %33, 1
  br i1 %.not19, label %35, label %34

34:                                               ; preds = %32
  call void @slurm_perror(ptr noundef nonnull @.str.214) #18
  br label %35

35:                                               ; preds = %34, %32
  store i32 %27, ptr @all_flag, align 4
  br label %.critedge

36:                                               ; preds = %30
  %37 = call i32 @scontrol_load_partitions(ptr noundef nonnull %3) #18
  store i32 %27, ptr @all_flag, align 4
  %.not17 = icmp eq i32 %37, 0
  br i1 %.not17, label %41, label %38

38:                                               ; preds = %36
  store i32 1, ptr @exit_code, align 4
  %39 = load i32, ptr @quiet_flag, align 4
  %.not18 = icmp eq i32 %39, 1
  br i1 %.not18, label %.critedge, label %40

40:                                               ; preds = %38
  call void @slurm_perror(ptr noundef nonnull @.str.215) #18
  br label %.critedge

41:                                               ; preds = %36
  %42 = load ptr, ptr %4, align 8
  %43 = load ptr, ptr %2, align 8
  %44 = load ptr, ptr %3, align 8
  call void @slurm_write_ctl_conf(ptr noundef %42, ptr noundef %43, ptr noundef %44) #18
  br label %.critedge

.critedge:                                        ; preds = %25, %.thread23, %35, %40, %38, %41
  call void @llvm.lifetime.end.p0(i64 8, ptr nonnull %4) #18
  call void @llvm.lifetime.end.p0(i64 8, ptr nonnull %3) #18
  call void @llvm.lifetime.end.p0(i64 8, ptr nonnull %2) #18
  ret void
}